(dp0
S'/my_folder/2.txt'
p1
(dp2
S'mtime'
p3
F1313138399.24
sS'size'
p4
L44859362L
ssS'/my_folder/345.txt'
p5
(dp6
S'size'
p7
L0L
sS'mtime'
p8
F1337613245.543906
ssV/my_folder/1/1/1/1/1/2.txt
p9
(dp10
g3
F1313138394.241236
sg4
L44859362L
ssS'/my_folder/New Text Document.txt'
p11
(dp12
S'mtime'
p13
F1337613467.1345804
sS'size'
p14
L0L
ssS'/my_folder/3.txt'
p15
(dp16
g3
F1313138399.24
sg4
L44859362L
ssV/my_folder/1/2.txt
p17
(dp18
g3
F1313138394.241236
sg4
L44859362L
ss.